ARM GAS  C:\Users\Victor\AppData\Local\Temp\ccIEX6Ml.s 			page 1


   1              		.cpu cortex-m4
   2              		.eabi_attribute 27, 1
   3              		.eabi_attribute 28, 1
   4              		.eabi_attribute 20, 1
   5              		.eabi_attribute 21, 1
   6              		.eabi_attribute 23, 3
   7              		.eabi_attribute 24, 1
   8              		.eabi_attribute 25, 1
   9              		.eabi_attribute 26, 1
  10              		.eabi_attribute 30, 2
  11              		.eabi_attribute 34, 1
  12              		.eabi_attribute 18, 4
  13              		.file	"main.c"
  14              		.text
  15              	.Ltext0:
  16              		.cfi_sections	.debug_frame
  17              		.section	.text.startup.main,"ax",%progbits
  18              		.align	1
  19              		.p2align 4,,15
  20              		.global	main
  21              		.syntax unified
  22              		.thumb
  23              		.thumb_func
  24              		.fpu fpv4-sp-d16
  25              		.type	main, %function
  26              	main:
  27              	.LFB293:
  28              		.file 1 "main.c"
  29              		.loc 1 31 0
  30              		.cfi_startproc
  31              		@ Volatile: function does not return.
  32              		@ args = 0, pretend = 0, frame = 8
  33              		@ frame_needed = 0, uses_anonymous_args = 0
  34 0000 00B5     		push	{lr}
  35              		.cfi_def_cfa_offset 4
  36              		.cfi_offset 14, -4
  37 0002 0C4B     		ldr	r3, .L6
  38 0004 83B0     		sub	sp, sp, #12
  39              		.cfi_def_cfa_offset 16
  40              		.loc 1 31 0
  41 0006 1B68     		ldr	r3, [r3]
  42 0008 0193     		str	r3, [sp, #4]
  43              		.loc 1 32 0
  44 000a FFF7FEFF 		bl	halInit
  45              	.LVL0:
  46              		.loc 1 33 0
  47 000e FFF7FEFF 		bl	chSysInit
  48              	.LVL1:
  49              		.loc 1 34 0
  50 0012 FFF7FEFF 		bl	mpu_init
  51              	.LVL2:
  52              		.loc 1 36 0
  53 0016 FFF7FEFF 		bl	motors_init
  54              	.LVL3:
  55              		.loc 1 39 0
  56 001a FFF7FEFF 		bl	e_init_port
  57              	.LVL4:
ARM GAS  C:\Users\Victor\AppData\Local\Temp\ccIEX6Ml.s 			page 2


  58              		.loc 1 40 0
  59 001e FFF7FEFF 		bl	e_init_motors
  60              	.LVL5:
  61              		.loc 1 42 0
  62 0022 4FF4FA70 		mov	r0, #500
  63 0026 FFF7FEFF 		bl	left_motor_set_speed
  64              	.LVL6:
  65              		.loc 1 43 0
  66 002a 0348     		ldr	r0, .L6+4
  67 002c FFF7FEFF 		bl	right_motor_set_speed
  68              	.LVL7:
  69              	.L2:
  70 0030 FEE7     		b	.L2
  71              	.L7:
  72 0032 00BF     		.align	2
  73              	.L6:
  74 0034 00000000 		.word	__stack_chk_guard
  75 0038 0CFEFFFF 		.word	-500
  76              		.cfi_endproc
  77              	.LFE293:
  78              		.size	main, .-main
  79              		.section	.text.__stack_chk_fail,"ax",%progbits
  80              		.align	1
  81              		.p2align 4,,15
  82              		.global	__stack_chk_fail
  83              		.syntax unified
  84              		.thumb
  85              		.thumb_func
  86              		.fpu fpv4-sp-d16
  87              		.type	__stack_chk_fail, %function
  88              	__stack_chk_fail:
  89              	.LFB294:
  90              		.loc 1 65 0
  91              		.cfi_startproc
  92              		@ args = 0, pretend = 0, frame = 8
  93              		@ frame_needed = 0, uses_anonymous_args = 0
  94 0000 00B5     		push	{lr}
  95              		.cfi_def_cfa_offset 4
  96              		.cfi_offset 14, -4
  97 0002 084B     		ldr	r3, .L13
  98 0004 83B0     		sub	sp, sp, #12
  99              		.cfi_def_cfa_offset 16
 100              		.loc 1 65 0
 101 0006 1A68     		ldr	r2, [r3]
 102 0008 0192     		str	r2, [sp, #4]
 103              		.loc 1 66 0
 104 000a 019A     		ldr	r2, [sp, #4]
 105 000c 1B68     		ldr	r3, [r3]
 106 000e 9A42     		cmp	r2, r3
 107 0010 05D1     		bne	.L12
 108 0012 0548     		ldr	r0, .L13+4
 109              		.loc 1 67 0
 110 0014 03B0     		add	sp, sp, #12
 111              		.cfi_remember_state
 112              		.cfi_def_cfa_offset 4
 113              		@ sp needed
 114 0016 5DF804EB 		ldr	lr, [sp], #4
ARM GAS  C:\Users\Victor\AppData\Local\Temp\ccIEX6Ml.s 			page 3


 115              		.cfi_restore 14
 116              		.cfi_def_cfa_offset 0
 117              		.loc 1 66 0
 118 001a FFF7FEBF 		b	chSysHalt
 119              	.LVL8:
 120              	.L12:
 121              		.cfi_restore_state
 122 001e FFF7FEFF 		bl	__stack_chk_fail
 123              	.LVL9:
 124              	.L14:
 125 0022 00BF     		.align	2
 126              	.L13:
 127 0024 00000000 		.word	__stack_chk_guard
 128 0028 00000000 		.word	.LC0
 129              		.cfi_endproc
 130              	.LFE294:
 131              		.size	__stack_chk_fail, .-__stack_chk_fail
 132              		.global	__stack_chk_guard
 133              		.section	.data.__stack_chk_guard,"aw",%progbits
 134              		.align	2
 135              		.type	__stack_chk_guard, %object
 136              		.size	__stack_chk_guard, 4
 137              	__stack_chk_guard:
 138 0000 96E3DEE2 		.word	-488709226
 139              		.section	.rodata.__stack_chk_fail.str1.4,"aMS",%progbits,1
 140              		.align	2
 141              	.LC0:
 142 0000 53746163 		.ascii	"Stack smashing detected\000"
 142      6B20736D 
 142      61736869 
 142      6E672064 
 142      65746563 
 143              		.text
 144              	.Letext0:
 145              		.file 2 "c:\\users\\victor\\desktop\\cours_3eme_annee\\microinformatique\\eclipse_e-puck2\\tools\\
 146              		.file 3 "c:\\users\\victor\\desktop\\cours_3eme_annee\\microinformatique\\eclipse_e-puck2\\tools\\
 147              		.file 4 "c:\\users\\victor\\desktop\\cours_3eme_annee\\microinformatique\\eclipse_e-puck2\\tools\\
 148              		.file 5 "c:\\users\\victor\\desktop\\cours_3eme_annee\\microinformatique\\eclipse_e-puck2\\tools\\
 149              		.file 6 "c:\\users\\victor\\desktop\\cours_3eme_annee\\microinformatique\\eclipse_e-puck2\\tools\\
 150              		.file 7 "c:\\users\\victor\\desktop\\cours_3eme_annee\\microinformatique\\eclipse_e-puck2\\tools\\
 151              		.file 8 "c:\\users\\victor\\desktop\\cours_3eme_annee\\microinformatique\\eclipse_e-puck2\\tools\\
 152              		.file 9 "../../lib/e-puck2_main-processor/ChibiOS//os/rt/ports/ARMCMx/compilers/GCC/chtypes.h"
 153              		.file 10 "../../lib/e-puck2_main-processor/ChibiOS//os/rt/include/chsystypes.h"
 154              		.file 11 "../../lib/e-puck2_main-processor/ChibiOS//os/rt/include/chschd.h"
 155              		.file 12 "../../lib/e-puck2_main-processor/ChibiOS//os/ext/CMSIS/include/core_cm4.h"
 156              		.file 13 "../../lib/e-puck2_main-processor/ChibiOS//os/ext/CMSIS/ST/system_stm32f4xx.h"
 157              		.file 14 "../../lib/e-puck2_main-processor/ChibiOS//os/ext/CMSIS/ST/stm32f407xx.h"
 158              		.file 15 "../../lib/e-puck2_main-processor/ChibiOS//os/rt/ports/ARMCMx/chcore.h"
 159              		.file 16 "../../lib/e-puck2_main-processor/ChibiOS//os/rt/ports/ARMCMx/chcore_v7m.h"
 160              		.file 17 "../../lib/e-puck2_main-processor/ChibiOS//os/rt/include/chdebug.h"
 161              		.file 18 "../../lib/e-puck2_main-processor/ChibiOS//os/rt/include/chtm.h"
 162              		.file 19 "../../lib/e-puck2_main-processor/ChibiOS//os/rt/include/chstats.h"
 163              		.file 20 "../../lib/e-puck2_main-processor/ChibiOS//os/rt/include/chsem.h"
 164              		.file 21 "../../lib/e-puck2_main-processor/ChibiOS//os/rt/include/chmtx.h"
 165              		.file 22 "../../lib/e-puck2_main-processor/ChibiOS//os/rt/include/chregistry.h"
 166              		.file 23 "../../lib/e-puck2_main-processor/ChibiOS//os/rt/include/chevents.h"
 167              		.file 24 "../../lib/e-puck2_main-processor/ChibiOS//os/rt/include/chqueues.h"
ARM GAS  C:\Users\Victor\AppData\Local\Temp\ccIEX6Ml.s 			page 4


 168              		.file 25 "../../lib/e-puck2_main-processor/ChibiOS//os/hal/ports/STM32/STM32F4xx/stm32_dma.h"
 169              		.file 26 "../../lib/e-puck2_main-processor/ChibiOS//os/hal/include/hal_ioblock.h"
 170              		.file 27 "../../lib/e-puck2_main-processor/ChibiOS//os/hal/ports/STM32/LLD/GPIOv2/pal_lld.h"
 171              		.file 28 "../../lib/e-puck2_main-processor/ChibiOS//os/hal/include/adc.h"
 172              		.file 29 "../../lib/e-puck2_main-processor/ChibiOS//os/hal/ports/STM32/STM32F4xx/adc_lld.h"
 173              		.file 30 "../../lib/e-puck2_main-processor/ChibiOS//os/hal/include/can.h"
 174              		.file 31 "../../lib/e-puck2_main-processor/ChibiOS//os/hal/ports/STM32/LLD/can_lld.h"
 175              		.file 32 "../../lib/e-puck2_main-processor/ChibiOS//os/hal/include/dac.h"
 176              		.file 33 "../../lib/e-puck2_main-processor/ChibiOS//os/hal/ports/STM32/LLD/DACv1/dac_lld.h"
 177              		.file 34 "../../lib/e-puck2_main-processor/ChibiOS//os/hal/include/ext.h"
 178              		.file 35 "../../lib/e-puck2_main-processor/ChibiOS//os/hal/ports/STM32/LLD/ext_lld.h"
 179              		.file 36 "../../lib/e-puck2_main-processor/ChibiOS//os/hal/include/gpt.h"
 180              		.file 37 "../../lib/e-puck2_main-processor/ChibiOS//os/hal/ports/STM32/LLD/TIMv1/gpt_lld.h"
 181              		.file 38 "../../lib/e-puck2_main-processor/ChibiOS//os/hal/ports/STM32/LLD/TIMv1/stm32_tim.h"
 182              		.file 39 "../../lib/e-puck2_main-processor/ChibiOS//os/hal/include/i2c.h"
 183              		.file 40 "../../lib/e-puck2_main-processor/ChibiOS//os/hal/ports/STM32/LLD/I2Cv1/i2c_lld.h"
 184              		.file 41 "../../lib/e-puck2_main-processor/ChibiOS//os/hal/include/i2s.h"
 185              		.file 42 "../../lib/e-puck2_main-processor/ChibiOS//os/hal/ports/STM32/LLD/SPIv1/i2s_lld.h"
 186              		.file 43 "../../lib/e-puck2_main-processor/ChibiOS//os/hal/include/pwm.h"
 187              		.file 44 "../../lib/e-puck2_main-processor/ChibiOS//os/hal/ports/STM32/LLD/TIMv1/pwm_lld.h"
 188              		.file 45 "../../lib/e-puck2_main-processor/ChibiOS//os/hal/include/serial.h"
 189              		.file 46 "../../lib/e-puck2_main-processor/ChibiOS//os/hal/ports/STM32/LLD/USARTv1/serial_lld.h"
 190              		.file 47 "../../lib/e-puck2_main-processor/ChibiOS//os/hal/include/sdc.h"
 191              		.file 48 "../../lib/e-puck2_main-processor/ChibiOS//os/hal/ports/STM32/LLD/sdc_lld.h"
 192              		.file 49 "../../lib/e-puck2_main-processor/ChibiOS//os/hal/include/spi.h"
 193              		.file 50 "../../lib/e-puck2_main-processor/ChibiOS//os/hal/ports/STM32/LLD/SPIv1/spi_lld.h"
 194              		.file 51 "../../lib/e-puck2_main-processor/ChibiOS//os/hal/include/usb.h"
 195              		.file 52 "../../lib/e-puck2_main-processor/ChibiOS//os/hal/ports/STM32/LLD/OTGv1/usb_lld.h"
 196              		.file 53 "../../lib/e-puck2_main-processor/ChibiOS//os/hal/ports/STM32/LLD/OTGv1/stm32_otg.h"
 197              		.file 54 "../../lib/e-puck2_main-processor/ChibiOS//os/hal/include/serial_usb.h"
 198              		.file 55 "../../lib/e-puck2_main-processor/src/usbcfg.h"
 199              		.file 56 "../../lib/e-puck2_main-processor/ChibiOS_ext/os/hal/include/../ports/STM32/STM32F4xx/dcm
 200              		.file 57 "c:\\users\\victor\\desktop\\cours_3eme_annee\\microinformatique\\eclipse_e-puck2\\tools\
 201              		.file 58 "../../lib/e-puck2_main-processor/src/msgbus/messagebus.h"
 202              		.file 59 "../../lib/e-puck2_main-processor/src/parameter/parameter.h"
 203              		.file 60 "./main.h"
 204              		.file 61 "c:\\users\\victor\\desktop\\cours_3eme_annee\\microinformatique\\eclipse_e-puck2\\tools\
 205              		.file 62 "../../lib/e-puck2_main-processor/ChibiOS//os/rt/include/chsys.h"
 206              		.file 63 "../../lib/e-puck2_main-processor/ChibiOS//os/hal/include/hal.h"
 207              		.file 64 "../../lib/e-puck2_main-processor/src/memory_protection.h"
 208              		.file 65 "../../lib/e-puck2_main-processor/src/motors.h"
 209              		.file 66 "../../lib/e-puck2_main-processor/src/epuck1x/motor_led/e_init_port.h"
 210              		.file 67 "../../lib/e-puck2_main-processor/src/epuck1x/motor_led/advance_one_timer/e_motors.h"